(dp0
S'_AgentService:AgentInfo'
p1
(dp2
S'com.plexapp.agents.fanarttv'
p3
(lp4
(dp5
S'media_types'
p6
(lp7
S'Movie'
p8
asS'primary_provider'
p9
I00
sS'fallback_agent'
p10
NsS'contributes_to'
p11
(lp12
S'com.plexapp.agents.imdb'
p13
aS'com.plexapp.agents.themoviedb'
p14
asS'has_attribution'
p15
I01
sS'languages'
p16
(lp17
S'xn'
p18
asS'persist_stored_files'
p19
I01
sS'version'
p20
I0
sS'accepts_from'
p21
NsS'prefs'
p22
I01
sS'name'
p23
S'Fanart.tv'
p24
sa(dp25
S'media_types'
p26
(lp27
S'TV_Show'
p28
asS'primary_provider'
p29
I00
sS'fallback_agent'
p30
NsS'contributes_to'
p31
(lp32
S'com.plexapp.agents.thetvdb'
p33
aS'com.plexapp.agents.themoviedb'
p34
asg15
I01
sS'languages'
p35
(lp36
S'xn'
p37
asS'persist_stored_files'
p38
I01
sS'version'
p39
I0
sS'accepts_from'
p40
NsS'prefs'
p41
I01
sS'name'
p42
S'Fanart.tv'
p43
sa(dp44
S'media_types'
p45
(lp46
S'Artist'
p47
asS'primary_provider'
p48
I00
sS'fallback_agent'
p49
NsS'contributes_to'
p50
(lp51
S'com.plexapp.agents.lastfm'
p52
asg15
I01
sS'languages'
p53
(lp54
S'xn'
p55
asS'persist_stored_files'
p56
I01
sS'version'
p57
I0
sS'accepts_from'
p58
NsS'prefs'
p59
I01
sS'name'
p60
S'Fanart.tv'
p61
sa(dp62
S'media_types'
p63
(lp64
S'Album'
p65
asS'primary_provider'
p66
I00
sS'fallback_agent'
p67
NsS'contributes_to'
p68
(lp69
S'com.plexapp.agents.lastfm'
p70
asg15
I01
sS'languages'
p71
(lp72
S'xn'
p73
asS'persist_stored_files'
p74
I01
sS'version'
p75
I0
sS'accepts_from'
p76
NsS'prefs'
p77
I01
sS'name'
p78
S'Fanart.tv'
p79
sasS'com.plexapp.agents.none'
p80
(lp81
(dp82
S'media_types'
p83
(lp84
S'Movie'
p85
asS'primary_provider'
p86
I01
sS'fallback_agent'
p87
NsS'contributes_to'
p88
Nsg15
I00
sS'languages'
p89
(lp90
S'xn'
p91
asS'persist_stored_files'
p92
I01
sS'version'
p93
I0
sS'accepts_from'
p94
NsS'prefs'
p95
I00
sS'name'
p96
S'Personal Media'
p97
sa(dp98
S'media_types'
p99
(lp100
S'TV_Show'
p101
asS'primary_provider'
p102
I01
sS'fallback_agent'
p103
NsS'contributes_to'
p104
Nsg15
I00
sS'languages'
p105
(lp106
S'xn'
p107
asS'persist_stored_files'
p108
I01
sS'version'
p109
I0
sS'accepts_from'
p110
NsS'prefs'
p111
I00
sS'name'
p112
S'Personal Media Shows'
p113
sa(dp114
S'media_types'
p115
(lp116
S'Artist'
p117
asS'primary_provider'
p118
I01
sS'fallback_agent'
p119
NsS'contributes_to'
p120
Nsg15
I00
sS'languages'
p121
(lp122
S'xn'
p123
asS'persist_stored_files'
p124
I01
sS'version'
p125
I0
sS'accepts_from'
p126
NsS'prefs'
p127
I00
sS'name'
p128
S'Personal Media Artists'
p129
sa(dp130
S'media_types'
p131
(lp132
S'Album'
p133
asS'primary_provider'
p134
I01
sS'fallback_agent'
p135
NsS'contributes_to'
p136
Nsg15
I00
sS'languages'
p137
(lp138
S'xn'
p139
asS'persist_stored_files'
p140
I01
sS'version'
p141
I0
sS'accepts_from'
p142
NsS'prefs'
p143
I00
sS'name'
p144
S'Personal Media Albums'
p145
sa(dp146
S'media_types'
p147
(lp148
S'Photo'
p149
asS'primary_provider'
p150
I01
sS'fallback_agent'
p151
NsS'contributes_to'
p152
Nsg15
I00
sS'languages'
p153
(lp154
S'en'
p155
aS'ar'
p156
aS'bg'
p157
aS'ca'
p158
aS'cs'
p159
aS'cy'
p160
aS'da'
p161
aS'de'
p162
aS'el'
p163
aS'es'
p164
aS'et'
p165
aS'fa'
p166
aS'fi'
p167
aS'fr'
p168
aS'he'
p169
aS'hi'
p170
aS'hr'
p171
aS'ht'
p172
aS'hu'
p173
aS'id'
p174
aS'it'
p175
aS'ja'
p176
aS'ko'
p177
aS'lt'
p178
aS'lv'
p179
aS'ms'
p180
aS'mt'
p181
aS'nl'
p182
aS'no'
p183
aS'pl'
p184
aS'pt'
p185
aS'ro'
p186
aS'ru'
p187
aS'sk'
p188
aS'sv'
p189
aS'sl'
p190
aS'sr'
p191
aS'th'
p192
aS'tr'
p193
aS'uk'
p194
aS'ur'
p195
aS'vi'
p196
aS'zh'
p197
aS'xn'
p198
asS'persist_stored_files'
p199
I01
sS'version'
p200
I0
sS'accepts_from'
p201
NsS'prefs'
p202
I00
sS'name'
p203
S'Photos'
p204
sasS'tv.plex.agents.music'
p205
(lp206
(dp207
S'media_types'
p208
(lp209
S'Artist'
p210
asS'primary_provider'
p211
I01
sS'fallback_agent'
p212
NsS'contributes_to'
p213
(lp214
S'com.plexapp.agents.localmedia'
p215
asg15
I01
sS'languages'
p216
(lp217
S'en'
p218
aS'ar'
p219
aS'bg'
p220
aS'zh'
p221
aS'hr'
p222
aS'cs'
p223
aS'da'
p224
aS'nl'
p225
aS'fi'
p226
aS'fr'
p227
aS'de'
p228
aS'el'
p229
aS'hu'
p230
aS'id'
p231
aS'it'
p232
aS'ja'
p233
aS'ko'
p234
aS'nn'
p235
aS'pl'
p236
aS'pt'
p237
aS'ro'
p238
aS'ru'
p239
aS'sr'
p240
aS'sk'
p241
aS'es'
p242
aS'sv'
p243
aS'th'
p244
aS'tr'
p245
aS'vi'
p246
aS'xx'
p247
asS'persist_stored_files'
p248
I01
sS'version'
p249
I0
sS'accepts_from'
p250
NsS'prefs'
p251
I01
sS'name'
p252
S'Plex Music'
p253
sa(dp254
S'media_types'
p255
(lp256
S'Album'
p257
asS'primary_provider'
p258
I01
sS'fallback_agent'
p259
NsS'contributes_to'
p260
(lp261
S'com.plexapp.agents.localmedia'
p262
asg15
I01
sS'languages'
p263
g217
sS'persist_stored_files'
p264
I01
sS'version'
p265
I0
sS'accepts_from'
p266
NsS'prefs'
p267
I01
sS'name'
p268
S'Plex Music'
p269
sasS'com.plexapp.agents.opensubtitles'
p270
(lp271
(dp272
S'media_types'
p273
(lp274
S'Movie'
p275
asS'primary_provider'
p276
I00
sS'fallback_agent'
p277
NsS'contributes_to'
p278
(lp279
S'com.plexapp.agents.imdb'
p280
asg15
I00
sS'languages'
p281
(lp282
S'xn'
p283
asS'persist_stored_files'
p284
I01
sS'version'
p285
I0
sS'accepts_from'
p286
NsS'prefs'
p287
I01
sS'name'
p288
S'OpenSubtitles.org'
p289
sa(dp290
S'media_types'
p291
(lp292
S'TV_Show'
p293
asS'primary_provider'
p294
I00
sS'fallback_agent'
p295
NsS'contributes_to'
p296
(lp297
S'com.plexapp.agents.thetvdb'
p298
asg15
I00
sS'languages'
p299
(lp300
S'xn'
p301
asS'persist_stored_files'
p302
I01
sS'version'
p303
I0
sS'accepts_from'
p304
NsS'prefs'
p305
I01
sS'name'
p306
S'OpenSubtitles.org'
p307
sasS'com.plexapp.agents.imdb'
p308
(lp309
(dp310
S'media_types'
p311
(lp312
S'Movie'
p313
asS'primary_provider'
p314
I01
sS'fallback_agent'
p315
NsS'contributes_to'
p316
(lp317
S'com.plexapp.agents.themoviedb'
p318
asS'has_attribution'
p319
I01
sS'languages'
p320
(lp321
S'en'
p322
aS'sv'
p323
aS'fr'
p324
aS'es'
p325
aS'nl'
p326
aS'de'
p327
aS'it'
p328
aS'da'
p329
aS'ar'
p330
aS'ca'
p331
aS'zh'
p332
aS'cs'
p333
aS'et'
p334
aS'fi'
p335
aS'el'
p336
aS'he'
p337
aS'hi'
p338
aS'hu'
p339
aS'id'
p340
aS'ja'
p341
aS'ko'
p342
aS'lv'
p343
aS'no'
p344
aS'fa'
p345
aS'pl'
p346
aS'pt'
p347
aS'ro'
p348
aS'ru'
p349
aS'sk'
p350
aS'th'
p351
aS'tr'
p352
aS'uk'
p353
aS'vi'
p354
asS'persist_stored_files'
p355
I01
sS'version'
p356
I0
sS'accepts_from'
p357
(lp358
S'com.plexapp.agents.localmedia'
p359
asS'prefs'
p360
I01
sS'name'
p361
S'Plex Movie'
p362
sasS'com.plexapp.agents.lyricfind'
p363
(lp364
(dp365
S'media_types'
p366
(lp367
S'Album'
p368
asS'primary_provider'
p369
I00
sS'fallback_agent'
p370
NsS'contributes_to'
p371
(lp372
S'com.plexapp.agents.plexmusic'
p373
aS'com.plexapp.agents.localmedia'
p374
aS'com.plexapp.agents.lastfm'
p375
aS'tv.plex.agents.music'
p376
aS'org.musicbrainz.agents.music'
p377
asg15
I01
sS'languages'
p378
(lp379
S'xn'
p380
asS'persist_stored_files'
p381
I01
sS'version'
p382
I0
sS'accepts_from'
p383
NsS'prefs'
p384
I00
sS'name'
p385
S'LyricFind'
p386
sasS'com.plexapp.agents.thetvdb'
p387
(lp388
(dp389
S'media_types'
p390
(lp391
S'TV_Show'
p392
asS'primary_provider'
p393
I01
sS'fallback_agent'
p394
NsS'contributes_to'
p395
Nsg15
I01
sS'languages'
p396
(lp397
S'en'
p398
aS'fr'
p399
aS'zh'
p400
aS'sv'
p401
aS'no'
p402
aS'da'
p403
aS'fi'
p404
aS'nl'
p405
aS'de'
p406
aS'it'
p407
aS'es'
p408
aS'pl'
p409
aS'hu'
p410
aS'el'
p411
aS'tr'
p412
aS'ru'
p413
aS'he'
p414
aS'ja'
p415
aS'pt'
p416
aS'cs'
p417
aS'ko'
p418
aS'sl'
p419
aS'hr'
p420
asS'persist_stored_files'
p421
I01
sS'version'
p422
I0
sS'accepts_from'
p423
NsS'prefs'
p424
I01
sS'name'
p425
S'TheTVDB'
p426
sasS'com.plexapp.agents.localmedia'
p427
(lp428
(dp429
S'media_types'
p430
(lp431
S'Movie'
p432
asS'primary_provider'
p433
I00
sS'fallback_agent'
p434
NsS'contributes_to'
p435
(lp436
S'com.plexapp.agents.imdb'
p437
aS'com.plexapp.agents.none'
p438
asg319
I00
sS'languages'
p439
(lp440
S'xn'
p441
asS'persist_stored_files'
p442
I00
sS'version'
p443
I0
sS'accepts_from'
p444
NsS'prefs'
p445
I01
sS'name'
p446
S'Local Media Assets (Movies)'
p447
sa(dp448
S'media_types'
p449
(lp450
S'TV_Show'
p451
asS'primary_provider'
p452
I00
sS'fallback_agent'
p453
NsS'contributes_to'
p454
(lp455
S'com.plexapp.agents.thetvdb'
p456
aS'com.plexapp.agents.none'
p457
asg319
I00
sS'languages'
p458
(lp459
S'xn'
p460
asS'persist_stored_files'
p461
I00
sS'version'
p462
I0
sS'accepts_from'
p463
NsS'prefs'
p464
I01
sS'name'
p465
S'Local Media Assets (TV)'
p466
sa(dp467
S'media_types'
p468
(lp469
S'Artist'
p470
asS'primary_provider'
p471
I00
sS'fallback_agent'
p472
NsS'contributes_to'
p473
(lp474
S'com.plexapp.agents.discogs'
p475
aS'com.plexapp.agents.lastfm'
p476
aS'com.plexapp.agents.plexmusic'
p477
aS'com.plexapp.agents.none'
p478
aS'tv.plex.agents.music'
p479
aS'org.musicbrainz.agents.music'
p480
asg319
I00
sS'languages'
p481
(lp482
S'xn'
p483
asS'persist_stored_files'
p484
I00
sS'version'
p485
I0
sS'accepts_from'
p486
NsS'prefs'
p487
I01
sS'name'
p488
S'Local Media Assets (Artists)'
p489
sa(dp490
S'media_types'
p491
(lp492
S'Artist'
p493
asS'primary_provider'
p494
I00
sS'fallback_agent'
p495
NsS'contributes_to'
p496
(lp497
S'com.plexapp.agents.plexmusic'
p498
asg319
I00
sS'languages'
p499
g482
sS'persist_stored_files'
p500
I00
sS'version'
p501
I2
sS'accepts_from'
p502
NsS'prefs'
p503
I01
sS'name'
p504
S'Local Media Assets (Artists)'
p505
sa(dp506
S'media_types'
p507
(lp508
S'Album'
p509
asS'primary_provider'
p510
I00
sS'fallback_agent'
p511
NsS'contributes_to'
p512
(lp513
S'com.plexapp.agents.discogs'
p514
aS'com.plexapp.agents.lastfm'
p515
aS'com.plexapp.agents.plexmusic'
p516
aS'com.plexapp.agents.none'
p517
aS'tv.plex.agents.music'
p518
aS'org.musicbrainz.agents.music'
p519
asg319
I00
sS'languages'
p520
(lp521
S'xn'
p522
asS'persist_stored_files'
p523
I00
sS'version'
p524
I0
sS'accepts_from'
p525
NsS'prefs'
p526
I01
sS'name'
p527
S'Local Media Assets (Albums)'
p528
sasS'com.plexapp.agents.plexthememusic'
p529
(lp530
(dp531
S'media_types'
p532
(lp533
S'TV_Show'
p534
asS'primary_provider'
p535
I00
sS'fallback_agent'
p536
NsS'contributes_to'
p537
(lp538
S'com.plexapp.agents.thetvdb'
p539
aS'com.plexapp.agents.thetvdbdvdorder'
p540
aS'com.plexapp.agents.themoviedb'
p541
asg15
I00
sS'languages'
p542
(lp543
S'xn'
p544
asS'persist_stored_files'
p545
I01
sS'version'
p546
I0
sS'accepts_from'
p547
NsS'prefs'
p548
I00
sS'name'
p549
S'Plex Theme Music'
p550
sasS'org.musicbrainz.agents.music'
p551
(lp552
(dp553
S'media_types'
p554
(lp555
S'Artist'
p556
asS'primary_provider'
p557
I01
sS'fallback_agent'
p558
NsS'contributes_to'
p559
Nsg15
I01
sS'languages'
p560
(lp561
S'en'
p562
aS'ar'
p563
aS'bg'
p564
aS'zh'
p565
aS'hr'
p566
aS'cs'
p567
aS'da'
p568
aS'nl'
p569
aS'fi'
p570
aS'fr'
p571
aS'de'
p572
aS'el'
p573
aS'hu'
p574
aS'id'
p575
aS'it'
p576
aS'ja'
p577
aS'ko'
p578
aS'nn'
p579
aS'pl'
p580
aS'pt'
p581
aS'ro'
p582
aS'ru'
p583
aS'sr'
p584
aS'sk'
p585
aS'es'
p586
aS'sv'
p587
aS'th'
p588
aS'tr'
p589
aS'vi'
p590
aS'xx'
p591
asS'persist_stored_files'
p592
I01
sS'version'
p593
I0
sS'accepts_from'
p594
NsS'prefs'
p595
I01
sS'name'
p596
S'Musicbrainz'
p597
sa(dp598
S'media_types'
p599
(lp600
S'Album'
p601
asS'primary_provider'
p602
I01
sS'fallback_agent'
p603
NsS'contributes_to'
p604
Nsg15
I01
sS'languages'
p605
g561
sS'persist_stored_files'
p606
I01
sS'version'
p607
I0
sS'accepts_from'
p608
NsS'prefs'
p609
I01
sS'name'
p610
S'Musicbrainz'
p611
sasS'com.plexapp.agents.themoviedb'
p612
(lp613
(dp614
S'media_types'
p615
(lp616
S'Movie'
p617
asS'primary_provider'
p618
I01
sS'fallback_agent'
p619
NsS'contributes_to'
p620
Nsg15
I01
sS'languages'
p621
(lp622
S'en'
p623
aS'cs'
p624
aS'da'
p625
aS'de'
p626
aS'el'
p627
aS'es'
p628
aS'fi'
p629
aS'fr'
p630
aS'he'
p631
aS'hr'
p632
aS'hu'
p633
aS'it'
p634
aS'lv'
p635
aS'lt'
p636
aS'nl'
p637
aS'no'
p638
aS'pl'
p639
aS'pt'
p640
aS'ru'
p641
aS'sk'
p642
aS'sv'
p643
aS'th'
p644
aS'tr'
p645
aS'vi'
p646
aS'zh'
p647
aS'ko'
p648
asS'persist_stored_files'
p649
I01
sS'version'
p650
I0
sS'accepts_from'
p651
(lp652
S'com.plexapp.agents.localmedia'
p653
asS'prefs'
p654
I01
sS'name'
p655
S'The Movie Database'
p656
sa(dp657
S'media_types'
p658
(lp659
S'TV_Show'
p660
asS'primary_provider'
p661
I01
sS'fallback_agent'
p662
NsS'contributes_to'
p663
(lp664
S'com.plexapp.agents.thetvdb'
p665
asg15
I01
sS'languages'
p666
g622
sS'persist_stored_files'
p667
I01
sS'version'
p668
I0
sS'accepts_from'
p669
(lp670
S'com.plexapp.agents.localmedia'
p671
aS'com.plexapp.agents.thetvdb'
p672
asS'prefs'
p673
I01
sS'name'
p674
S'The Movie Database'
p675
sasS'com.plexapp.agents.movieposterdb'
p676
(lp677
(dp678
S'media_types'
p679
(lp680
S'Movie'
p681
asS'primary_provider'
p682
I00
sS'fallback_agent'
p683
NsS'contributes_to'
p684
(lp685
S'com.plexapp.agents.imdb'
p686
asg15
I01
sS'languages'
p687
(lp688
S'xn'
p689
asS'persist_stored_files'
p690
I01
sS'version'
p691
I0
sS'accepts_from'
p692
NsS'prefs'
p693
I00
sS'name'
p694
S'CineMaterial'
p695
sasS'com.plexapp.agents.htbackdrops'
p696
(lp697
(dp698
S'media_types'
p699
(lp700
S'Artist'
p701
asS'primary_provider'
p702
I00
sS'fallback_agent'
p703
NsS'contributes_to'
p704
(lp705
S'com.plexapp.agents.lastfm'
p706
asg15
I01
sS'languages'
p707
(lp708
S'ab'
p709
aS'aa'
p710
aS'af'
p711
aS'ak'
p712
aS'sq'
p713
aS'am'
p714
aS'ar'
p715
aS'an'
p716
aS'hy'
p717
aS'as'
p718
aS'av'
p719
aS'ae'
p720
aS'ay'
p721
aS'az'
p722
aS'bm'
p723
aS'ba'
p724
aS'eu'
p725
aS'be'
p726
aS'bn'
p727
aS'bh'
p728
aS'bi'
p729
aS'bs'
p730
aS'pb'
p731
aS'br'
p732
aS'bg'
p733
aS'my'
p734
aS'ca'
p735
aS'ch'
p736
aS'ce'
p737
aS'ny'
p738
aS'zh'
p739
aS'cu'
p740
aS'cv'
p741
aS'kw'
p742
aS'co'
p743
aS'cr'
p744
aS'hr'
p745
aS'cs'
p746
aS'da'
p747
aS'dv'
p748
aS'nl'
p749
aS'dz'
p750
aS'en'
p751
aS'eo'
p752
aS'et'
p753
aS'ee'
p754
aS'fo'
p755
aS'fj'
p756
aS'fi'
p757
aS'fr'
p758
aS'fy'
p759
aS'ff'
p760
aS'gd'
p761
aS'gl'
p762
aS'lg'
p763
aS'ka'
p764
aS'de'
p765
aS'el'
p766
aS'gn'
p767
aS'gu'
p768
aS'ht'
p769
aS'ha'
p770
aS'he'
p771
aS'hz'
p772
aS'hi'
p773
aS'ho'
p774
aS'hu'
p775
aS'is'
p776
aS'io'
p777
aS'ig'
p778
aS'id'
p779
aS'ia'
p780
aS'ie'
p781
aS'iu'
p782
aS'ik'
p783
aS'ga'
p784
aS'it'
p785
aS'ja'
p786
aS'jv'
p787
aS'kl'
p788
aS'kn'
p789
aS'kr'
p790
aS'ks'
p791
aS'kk'
p792
aS'km'
p793
aS'ki'
p794
aS'rw'
p795
aS'ky'
p796
aS'kv'
p797
aS'kg'
p798
aS'ko'
p799
aS'kj'
p800
aS'ku'
p801
aS'lo'
p802
aS'la'
p803
aS'lv'
p804
aS'li'
p805
aS'ln'
p806
aS'lt'
p807
aS'lu'
p808
aS'lb'
p809
aS'mk'
p810
aS'mg'
p811
aS'ms'
p812
aS'ml'
p813
aS'mt'
p814
aS'gv'
p815
aS'mi'
p816
aS'mr'
p817
aS'mh'
p818
aS'mo'
p819
aS'mn'
p820
aS'na'
p821
aS'nv'
p822
aS'ng'
p823
aS'ne'
p824
aS'xn'
p825
aS'nd'
p826
aS'no'
p827
aS'nb'
p828
aS'nn'
p829
aS'oc'
p830
aS'oj'
p831
aS'or'
p832
aS'om'
p833
aS'os'
p834
aS'pi'
p835
aS'pa'
p836
aS'fa'
p837
aS'pl'
p838
aS'pt'
p839
aS'ps'
p840
aS'qu'
p841
aS'rm'
p842
aS'ro'
p843
aS'rn'
p844
aS'ru'
p845
aS'se'
p846
aS'sm'
p847
aS'sg'
p848
aS'sa'
p849
aS'sc'
p850
aS'sr'
p851
aS'sn'
p852
aS'ii'
p853
aS'sd'
p854
aS'si'
p855
aS'sk'
p856
aS'sl'
p857
aS'so'
p858
aS'st'
p859
aS'nr'
p860
aS'es'
p861
aS'su'
p862
aS'sw'
p863
aS'ss'
p864
aS'sv'
p865
aS'tl'
p866
aS'ty'
p867
aS'tg'
p868
aS'ta'
p869
aS'tt'
p870
aS'te'
p871
aS'th'
p872
aS'bo'
p873
aS'ti'
p874
aS'to'
p875
aS'ts'
p876
aS'tn'
p877
aS'tr'
p878
aS'tk'
p879
aS'tw'
p880
aS'ug'
p881
aS'uk'
p882
aS'ur'
p883
aS'uz'
p884
aS've'
p885
aS'vi'
p886
aS'vo'
p887
aS'wa'
p888
aS'cy'
p889
aS'wo'
p890
aS'xh'
p891
aS'yi'
p892
aS'yo'
p893
aS'za'
p894
aS'zu'
p895
asS'persist_stored_files'
p896
I01
sS'version'
p897
I0
sS'accepts_from'
p898
NsS'prefs'
p899
I00
sS'name'
p900
S'Home Theater Backdrops'
p901
sasS'com.plexapp.agents.lastfm'
p902
(lp903
(dp904
S'media_types'
p905
(lp906
S'Artist'
p907
asS'primary_provider'
p908
I01
sS'fallback_agent'
p909
NsS'contributes_to'
p910
Nsg15
I01
sS'languages'
p911
(lp912
S'en'
p913
aS'sv'
p914
aS'fr'
p915
aS'es'
p916
aS'de'
p917
aS'pl'
p918
aS'it'
p919
aS'pt'
p920
aS'ja'
p921
aS'tr'
p922
aS'ru'
p923
aS'zh'
p924
asS'persist_stored_files'
p925
I01
sS'version'
p926
I0
sS'accepts_from'
p927
NsS'prefs'
p928
I01
sS'name'
p929
S'Last.fm'
p930
sa(dp931
S'media_types'
p932
(lp933
S'Album'
p934
asS'primary_provider'
p935
I01
sS'fallback_agent'
p936
NsS'contributes_to'
p937
Nsg15
I01
sS'languages'
p938
(lp939
S'en'
p940
aS'sv'
p941
aS'fr'
p942
aS'es'
p943
aS'de'
p944
aS'pl'
p945
aS'it'
p946
aS'pt'
p947
aS'ja'
p948
aS'tr'
p949
aS'ru'
p950
aS'zh'
p951
asS'persist_stored_files'
p952
I01
sS'version'
p953
I0
sS'accepts_from'
p954
NsS'prefs'
p955
I01
sS'name'
p956
S'Last.fm'
p957
sass.